; Function Attrs: mustprogress uwtable
define hidden noundef nonnull align 8 dereferenceable(17) ptr @_ZNK17arith_decl_plugin2amEv(ptr noundef nonnull align 8 captures(none) dereferenceable(441) %0) local_unnamed_addr #3 align 2 {
  %2 = getelementptr inbounds nuw i8, ptr %0, i64 24
  %3 = load ptr, ptr %2, align 8, !tbaa !3
  %4 = icmp eq ptr %3, null
  br i1 %4, label %5, label %_ZNK17arith_decl_plugin2awEv.exit

5:                                                ; preds = %1
  %6 = tail call noalias noundef ptr @_ZN6memory8allocateEm(i64 noundef 784)
  %7 = getelementptr inbounds nuw i8, ptr %0, i64 8
  %8 = load ptr, ptr %7, align 8, !tbaa !22
  tail call void @_ZN17arith_decl_plugin25algebraic_numbers_wrapperC2ER8reslimit(ptr noundef nonnull align 8 dereferenceable(784) %6, ptr noundef nonnull align 8 dereferenceable(40) %8)
  store ptr %6, ptr %2, align 8, !tbaa !3
  br label %_ZNK17arith_decl_plugin2awEv.exit

_ZNK17arith_decl_plugin2awEv.exit:                ; preds = %1, %5
  %9 = phi ptr [ %6, %5 ], [ %3, %1 ]
  %10 = getelementptr inbounds nuw i8, ptr %9, i64 728
  ret ptr %10
}